target datalayout = "e-m:e-p270:32:32-p271:32:32-p272:64:64-i64:64-i128:128-f80:128-n8:16:32:64-S128"
target triple = "x86_64-pc-linux-gnu"

%struct.ticker_geom_s = type { i32, i32 }
%struct.tsd_link_t = type { ptr, ptr }
%struct.peak_s = type { i64, i64 }
%struct.activity_callback_thunk_s = type { ptr, ptr }
%struct.anon = type { ptr, ptr }
%struct.cache_bin_array_descriptor_s = type { %struct.anon.0, ptr }
%struct.anon.0 = type { ptr, ptr }
%struct.rtree_ctx_s = type { [16 x %struct.rtree_ctx_cache_elm_s], [8 x %struct.rtree_ctx_cache_elm_s] }
%struct.rtree_ctx_cache_elm_s = type { i64, ptr }
%struct.atomic_u8_t = type { i8 }
%struct.tcache_s = type { ptr, [73 x %struct.cache_bin_s] }
%struct.cache_bin_s = type { ptr, %struct.cache_bin_stats_s, i16, i16, i16, %struct.cache_bin_info_s }
%struct.cache_bin_stats_s = type { i64 }
%struct.cache_bin_info_s = type { i16 }
%struct.witness_list_t = type { ptr }
%struct.atomic_u32_t = type { i32 }
%struct.tsd_s = type { i8, i8, i8, i64, i64, i64, i64, i64, i64, i64, i64, i64, i64, i64, i64, ptr, i64, i64, i64, ptr, ptr, %struct.ticker_geom_s, i8, %struct.tsd_binshards_s, %struct.tsd_link_t, i8, %struct.peak_s, %struct.activity_callback_thunk_s, %struct.tcache_slow_s, %struct.rtree_ctx_s, %struct.atomic_u8_t, i64, i64, i64, i64, %struct.tcache_s, %struct.witness_tsd_s }
%struct.tsd_binshards_s = type { [36 x i8] }
%struct.tcache_slow_s = type { %struct.anon, %struct.cache_bin_array_descriptor_s, ptr, i32, i32, [36 x i8], [36 x i8], [36 x i8], ptr, ptr }
%struct.witness_tsd_s = type { %struct.witness_list_t, i8 }

@tsd_global_slow_count = internal global %struct.atomic_u32_t zeroinitializer, align 4
@duckdb_je_malloc_slow = external global i8, align 1

; Function Attrs: alwaysinline nounwind uwtable
define internal ptr @tsd_reentrancy_levelp_get_unsafe(ptr noundef %0) #1 {
  %2 = alloca ptr, align 8
  store ptr %0, ptr %2, align 8, !tbaa !14
  %3 = load ptr, ptr %2, align 8, !tbaa !14
  %4 = getelementptr inbounds nuw %struct.tsd_s, ptr %3, i32 0, i32 1
  ret ptr %4
}

; Function Attrs: alwaysinline nounwind uwtable
define internal ptr @tsd_tcache_enabledp_get_unsafe(ptr noundef %0) #1 {
  %2 = alloca ptr, align 8
  store ptr %0, ptr %2, align 8, !tbaa !14
  %3 = load ptr, ptr %2, align 8, !tbaa !14
  %4 = getelementptr inbounds nuw %struct.tsd_s, ptr %3, i32 0, i32 0
  ret ptr %4
}

; Function Attrs: alwaysinline nounwind uwtable
define internal ptr @tsd_reentrancy_levelp_get(ptr noundef %0) #1 {
  %2 = alloca ptr, align 8
  %3 = alloca i8, align 1
  store ptr %0, ptr %2, align 8, !tbaa !14
  call void @llvm.lifetime.start.p0(i64 1, ptr %3) #10
  %4 = load ptr, ptr %2, align 8, !tbaa !14
  %5 = call zeroext i8 @tsd_state_get(ptr noundef %4)
  store i8 %5, ptr %3, align 1, !tbaa !40
  br label %6

6:                                                ; preds = %1
  br label %7

7:                                                ; preds = %6
  br label %8

8:                                                ; preds = %7
  %9 = load ptr, ptr %2, align 8, !tbaa !14
  %10 = call ptr @tsd_reentrancy_levelp_get_unsafe(ptr noundef %9)
  call void @llvm.lifetime.end.p0(i64 1, ptr %3) #10
  ret ptr %10
}

; Function Attrs: alwaysinline nounwind uwtable
define internal ptr @tsd_tcache_enabledp_get(ptr noundef %0) #1 {
  %2 = alloca ptr, align 8
  %3 = alloca i8, align 1
  store ptr %0, ptr %2, align 8, !tbaa !14
  call void @llvm.lifetime.start.p0(i64 1, ptr %3) #10
  %4 = load ptr, ptr %2, align 8, !tbaa !14
  %5 = call zeroext i8 @tsd_state_get(ptr noundef %4)
  store i8 %5, ptr %3, align 1, !tbaa !40
  br label %6

6:                                                ; preds = %1
  br label %7

7:                                                ; preds = %6
  br label %8

8:                                                ; preds = %7
  %9 = load ptr, ptr %2, align 8, !tbaa !14
  %10 = call ptr @tsd_tcache_enabledp_get_unsafe(ptr noundef %9)
  call void @llvm.lifetime.end.p0(i64 1, ptr %3) #10
  ret ptr %10
}

; Function Attrs: alwaysinline nounwind uwtable
define internal i32 @atomic_load_u32(ptr noundef %0, i32 noundef %1) #1 {
  %3 = alloca ptr, align 8
  %4 = alloca i32, align 4
  %5 = alloca i32, align 4
  store ptr %0, ptr %3, align 8, !tbaa !8
  store i32 %1, ptr %4, align 4, !tbaa !9
  call void @llvm.lifetime.start.p0(i64 4, ptr %5) #10
  %6 = load ptr, ptr %3, align 8, !tbaa !8
  %7 = getelementptr inbounds nuw %struct.atomic_u32_t, ptr %6, i32 0, i32 0
  %8 = load i32, ptr %4, align 4, !tbaa !9
  %9 = call i32 @atomic_enum_to_builtin(i32 noundef %8)
  switch i32 %9, label %10 [
    i32 1, label %12
    i32 2, label %12
    i32 5, label %14
  ]

10:                                               ; preds = %2
  %11 = load atomic i32, ptr %7 monotonic, align 4
  store i32 %11, ptr %5, align 4
  br label %16

12:                                               ; preds = %2, %2
  %13 = load atomic i32, ptr %7 acquire, align 4
  store i32 %13, ptr %5, align 4
  br label %16

14:                                               ; preds = %2
  %15 = load atomic i32, ptr %7 seq_cst, align 4
  store i32 %15, ptr %5, align 4
  br label %16

16:                                               ; preds = %14, %12, %10
  %17 = load i32, ptr %5, align 4, !tbaa !9
  call void @llvm.lifetime.end.p0(i64 4, ptr %5) #10
  ret i32 %17
}

; Function Attrs: alwaysinline nounwind uwtable
define internal signext i8 @tsd_reentrancy_level_get(ptr noundef %0) #1 {
  %2 = alloca ptr, align 8
  store ptr %0, ptr %2, align 8, !tbaa !14
  %3 = load ptr, ptr %2, align 8, !tbaa !14
  %4 = call ptr @tsd_reentrancy_levelp_get(ptr noundef %3)
  %5 = load i8, ptr %4, align 1, !tbaa !40
  ret i8 %5
}

; Function Attrs: alwaysinline nounwind uwtable
define internal zeroext i1 @tsd_tcache_enabled_get(ptr noundef %0) #1 {
  %2 = alloca ptr, align 8
  store ptr %0, ptr %2, align 8, !tbaa !14
  %3 = load ptr, ptr %2, align 8, !tbaa !14
  %4 = call ptr @tsd_tcache_enabledp_get(ptr noundef %3)
  %5 = load i8, ptr %4, align 1, !tbaa !41, !range !42, !noundef !43
  %6 = trunc i8 %5 to i1
  ret i1 %6
}

; Function Attrs: alwaysinline nounwind uwtable
define internal i32 @atomic_enum_to_builtin(i32 noundef %0) #1 {
  %2 = alloca i32, align 4
  %3 = alloca i32, align 4
  store i32 %0, ptr %3, align 4, !tbaa !9
  %4 = load i32, ptr %3, align 4, !tbaa !9
  switch i32 %4, label %10 [
    i32 0, label %5
    i32 1, label %6
    i32 2, label %7
    i32 3, label %8
    i32 4, label %9
  ]

5:                                                ; preds = %1
  store i32 0, ptr %2, align 4
  br label %12

6:                                                ; preds = %1
  store i32 2, ptr %2, align 4
  br label %12

7:                                                ; preds = %1
  store i32 3, ptr %2, align 4
  br label %12

8:                                                ; preds = %1
  store i32 4, ptr %2, align 4
  br label %12

9:                                                ; preds = %1
  store i32 5, ptr %2, align 4
  br label %12

10:                                               ; preds = %1
  br label %11

11:                                               ; preds = %10
  unreachable

12:                                               ; preds = %5, %6, %7, %8, %9
  %13 = load i32, ptr %2, align 4
  ret i32 %13
}

; Function Attrs: nounwind uwtable
define zeroext i1 @duckdb_je_tsd_global_slow() #0 {
  %1 = call i32 @atomic_load_u32(ptr noundef @tsd_global_slow_count, i32 noundef 0)
  %2 = icmp ugt i32 %1, 0
  ret i1 %2
}

; Function Attrs: nounwind uwtable
define internal zeroext i1 @tsd_local_slow(ptr noundef %0) #0 {
  %2 = alloca ptr, align 8
  store ptr %0, ptr %2, align 8, !tbaa !14
  %3 = load ptr, ptr %2, align 8, !tbaa !14
  %4 = call zeroext i1 @tsd_tcache_enabled_get(ptr noundef %3)
  br i1 %4, label %5, label %10

5:                                                ; preds = %1
  %6 = load ptr, ptr %2, align 8, !tbaa !14
  %7 = call signext i8 @tsd_reentrancy_level_get(ptr noundef %6)
  %8 = sext i8 %7 to i32
  %9 = icmp sgt i32 %8, 0
  br label %10

10:                                               ; preds = %5, %1
  %11 = phi i1 [ true, %1 ], [ %9, %5 ]
  ret i1 %11
}

; Function Attrs: inlinehint nounwind uwtable
define internal zeroext i1 @tsd_nominal(ptr noundef %0) #4 {
  %2 = alloca ptr, align 8
  %3 = alloca i8, align 1
  store ptr %0, ptr %2, align 8, !tbaa !14
  call void @llvm.lifetime.start.p0(i64 1, ptr %3) #10
  %4 = load ptr, ptr %2, align 8, !tbaa !14
  %5 = call zeroext i8 @tsd_state_get(ptr noundef %4)
  %6 = zext i8 %5 to i32
  %7 = icmp sle i32 %6, 2
  %8 = zext i1 %7 to i8
  store i8 %8, ptr %3, align 1, !tbaa !41
  br label %9

9:                                                ; preds = %1
  br label %10

10:                                               ; preds = %9
  br label %11

11:                                               ; preds = %10
  %12 = load i8, ptr %3, align 1, !tbaa !41, !range !42, !noundef !43
  %13 = trunc i8 %12 to i1
  call void @llvm.lifetime.end.p0(i64 1, ptr %3) #10
  ret i1 %13
}

; Function Attrs: alwaysinline nounwind uwtable
define internal void @tsd_assert_fast(ptr noundef %0) #1 {
  %2 = alloca ptr, align 8
  store ptr %0, ptr %2, align 8, !tbaa !14
  br label %3

3:                                                ; preds = %1
  br label %4

4:                                                ; preds = %3
  ret void
}

; Function Attrs: alwaysinline nounwind uwtable
define internal zeroext i8 @tsd_state_get(ptr noundef %0) #1 {
  %2 = alloca ptr, align 8
  store ptr %0, ptr %2, align 8, !tbaa !14
  %3 = load ptr, ptr %2, align 8, !tbaa !14
  %4 = getelementptr inbounds nuw %struct.tsd_s, ptr %3, i32 0, i32 30
  %5 = load i8, ptr %4, align 8, !tbaa !40
  ret i8 %5
}

; Function Attrs: alwaysinline nounwind uwtable
define internal zeroext i1 @tsd_get_allocates() #1 {
  ret i1 false
}

; Function Attrs: alwaysinline nounwind uwtable
define internal ptr @tsd_get(i1 noundef zeroext %0) #1 {
  %2 = alloca i8, align 1
  %3 = zext i1 %0 to i8
  store i8 %3, ptr %2, align 1, !tbaa !41
  %4 = call align 8 ptr @llvm.threadlocal.address.p0(ptr align 8 @duckdb_je_tsd_tls)
  ret ptr %4
}

; Function Attrs: alwaysinline nounwind uwtable
define internal zeroext i8 @atomic_exchange_u8(ptr noundef %0, i8 noundef zeroext %1, i32 noundef %2) #1 {
  %4 = alloca ptr, align 8
  %5 = alloca i8, align 1
  %6 = alloca i32, align 4
  %7 = alloca i8, align 1
  store ptr %0, ptr %4, align 8, !tbaa !8
  store i8 %1, ptr %5, align 1, !tbaa !40
  store i32 %2, ptr %6, align 4, !tbaa !9
  call void @llvm.lifetime.start.p0(i64 1, ptr %7) #10
  %8 = load ptr, ptr %4, align 8, !tbaa !8
  %9 = getelementptr inbounds nuw %struct.atomic_u8_t, ptr %8, i32 0, i32 0
  %10 = load i32, ptr %6, align 4, !tbaa !9
  %11 = call i32 @atomic_enum_to_builtin(i32 noundef %10)
  switch i32 %11, label %12 [
    i32 1, label %15
    i32 2, label %15
    i32 3, label %18
    i32 4, label %21
    i32 5, label %24
  ]

12:                                               ; preds = %3
  %13 = load i8, ptr %5, align 1
  %14 = atomicrmw xchg ptr %9, i8 %13 monotonic, align 1
  store i8 %14, ptr %7, align 1
  br label %27

15:                                               ; preds = %3, %3
  %16 = load i8, ptr %5, align 1
  %17 = atomicrmw xchg ptr %9, i8 %16 acquire, align 1
  store i8 %17, ptr %7, align 1
  br label %27

18:                                               ; preds = %3
  %19 = load i8, ptr %5, align 1
  %20 = atomicrmw xchg ptr %9, i8 %19 release, align 1
  store i8 %20, ptr %7, align 1
  br label %27

21:                                               ; preds = %3
  %22 = load i8, ptr %5, align 1
  %23 = atomicrmw xchg ptr %9, i8 %22 acq_rel, align 1
  store i8 %23, ptr %7, align 1
  br label %27

24:                                               ; preds = %3
  %25 = load i8, ptr %5, align 1
  %26 = atomicrmw xchg ptr %9, i8 %25 seq_cst, align 1
  store i8 %26, ptr %7, align 1
  br label %27

27:                                               ; preds = %24, %21, %18, %15, %12
  %28 = load i8, ptr %7, align 1, !tbaa !40
  call void @llvm.lifetime.end.p0(i64 1, ptr %7) #10
  ret i8 %28
}

; Function Attrs: nounwind uwtable
define internal zeroext i8 @tsd_state_compute(ptr noundef %0) #0 {
  %2 = alloca i8, align 1
  %3 = alloca ptr, align 8
  store ptr %0, ptr %3, align 8, !tbaa !14
  %4 = load ptr, ptr %3, align 8, !tbaa !14
  %5 = call zeroext i1 @tsd_nominal(ptr noundef %4)
  br i1 %5, label %9, label %6

6:                                                ; preds = %1
  %7 = load ptr, ptr %3, align 8, !tbaa !14
  %8 = call zeroext i8 @tsd_state_get(ptr noundef %7)
  store i8 %8, ptr %2, align 1
  br label %19

9:                                                ; preds = %1
  %10 = load i8, ptr @duckdb_je_malloc_slow, align 1, !tbaa !41, !range !42, !noundef !43
  %11 = trunc i8 %10 to i1
  br i1 %11, label %17, label %12

12:                                               ; preds = %9
  %13 = load ptr, ptr %3, align 8, !tbaa !14
  %14 = call zeroext i1 @tsd_local_slow(ptr noundef %13)
  br i1 %14, label %17, label %15

15:                                               ; preds = %12
  %16 = call zeroext i1 @duckdb_je_tsd_global_slow()
  br i1 %16, label %17, label %18

17:                                               ; preds = %15, %12, %9
  store i8 1, ptr %2, align 1
  br label %19

18:                                               ; preds = %15
  store i8 0, ptr %2, align 1
  br label %19

19:                                               ; preds = %18, %17, %6
  %20 = load i8, ptr %2, align 1
  ret i8 %20
}

; Function Attrs: alwaysinline nounwind uwtable
define internal ptr @tsd_fetch_impl(i1 noundef zeroext %0, i1 noundef zeroext %1) #1 {
  %3 = alloca ptr, align 8
  %4 = alloca i8, align 1
  %5 = alloca i8, align 1
  %6 = alloca ptr, align 8
  %7 = alloca i32, align 4
  %8 = zext i1 %0 to i8
  store i8 %8, ptr %4, align 1, !tbaa !41
  %9 = zext i1 %1 to i8
  store i8 %9, ptr %5, align 1, !tbaa !41
  call void @llvm.lifetime.start.p0(i64 8, ptr %6) #10
  %10 = load i8, ptr %4, align 1, !tbaa !41, !range !42, !noundef !43
  %11 = trunc i8 %10 to i1
  %12 = call ptr @tsd_get(i1 noundef zeroext %11)
  store ptr %12, ptr %6, align 8, !tbaa !14
  %13 = load i8, ptr %4, align 1, !tbaa !41, !range !42, !noundef !43
  %14 = trunc i8 %13 to i1
  br i1 %14, label %21, label %15

15:                                               ; preds = %2
  %16 = call zeroext i1 @tsd_get_allocates()
  br i1 %16, label %17, label %21

17:                                               ; preds = %15
  %18 = load ptr, ptr %6, align 8, !tbaa !14
  %19 = icmp eq ptr %18, null
  br i1 %19, label %20, label %21

20:                                               ; preds = %17
  store ptr null, ptr %3, align 8
  store i32 1, ptr %7, align 4
  br label %46

21:                                               ; preds = %17, %15, %2
  br label %22

22:                                               ; preds = %21
  br label %23

23:                                               ; preds = %22
  br label %24

24:                                               ; preds = %23
  %25 = load ptr, ptr %6, align 8, !tbaa !14
  %26 = call zeroext i8 @tsd_state_get(ptr noundef %25)
  %27 = zext i8 %26 to i32
  %28 = icmp ne i32 %27, 0
  %29 = xor i1 %28, true
  %30 = xor i1 %29, true
  %31 = zext i1 %30 to i32
  %32 = sext i32 %31 to i64
  %33 = call i64 @llvm.expect.i64(i64 %32, i64 0)
  %34 = icmp ne i64 %33, 0
  br i1 %34, label %35, label %40

35:                                               ; preds = %24
  %36 = load ptr, ptr %6, align 8, !tbaa !14
  %37 = load i8, ptr %5, align 1, !tbaa !41, !range !42, !noundef !43
  %38 = trunc i8 %37 to i1
  %39 = call ptr @duckdb_je_tsd_fetch_slow(ptr noundef %36, i1 noundef zeroext %38)
  store ptr %39, ptr %3, align 8
  store i32 1, ptr %7, align 4
  br label %46

40:                                               ; preds = %24
  br label %41

41:                                               ; preds = %40
  br label %42

42:                                               ; preds = %41
  br label %43

43:                                               ; preds = %42
  %44 = load ptr, ptr %6, align 8, !tbaa !14
  call void @tsd_assert_fast(ptr noundef %44)
  %45 = load ptr, ptr %6, align 8, !tbaa !14
  store ptr %45, ptr %3, align 8
  store i32 1, ptr %7, align 4
  br label %46

46:                                               ; preds = %43, %35, %20
  call void @llvm.lifetime.end.p0(i64 8, ptr %6) #10
  %47 = load ptr, ptr %3, align 8
  ret ptr %47
}

; Function Attrs: nounwind uwtable
define void @duckdb_je_tsd_slow_update(ptr noundef %0) #0 {
  %2 = alloca ptr, align 8
  %3 = alloca i8, align 1
  %4 = alloca i8, align 1
  store ptr %0, ptr %2, align 8, !tbaa !14
  call void @llvm.lifetime.start.p0(i64 1, ptr %3) #10
  br label %5

5:                                                ; preds = %12, %1
  call void @llvm.lifetime.start.p0(i64 1, ptr %4) #10
  %6 = load ptr, ptr %2, align 8, !tbaa !14
  %7 = call zeroext i8 @tsd_state_compute(ptr noundef %6)
  store i8 %7, ptr %4, align 1, !tbaa !40
  %8 = load ptr, ptr %2, align 8, !tbaa !14
  %9 = getelementptr inbounds nuw %struct.tsd_s, ptr %8, i32 0, i32 30
  %10 = load i8, ptr %4, align 1, !tbaa !40
  %11 = call zeroext i8 @atomic_exchange_u8(ptr noundef %9, i8 noundef zeroext %10, i32 noundef 1)
  store i8 %11, ptr %3, align 1, !tbaa !40
  call void @llvm.lifetime.end.p0(i64 1, ptr %4) #10
  br label %12

12:                                               ; preds = %5
  %13 = load i8, ptr %3, align 1, !tbaa !40
  %14 = zext i8 %13 to i32
  %15 = icmp eq i32 %14, 2
  br i1 %15, label %5, label %16

16:                                               ; preds = %12
  %17 = load ptr, ptr %2, align 8, !tbaa !14
  call void @duckdb_je_te_recompute_fast_threshold(ptr noundef %17)
  call void @llvm.lifetime.end.p0(i64 1, ptr %3) #10
  ret void
}

; Function Attrs: alwaysinline nounwind uwtable
define internal ptr @tsd_fetch() #1 {
  %1 = call ptr @tsd_fetch_impl(i1 noundef zeroext true, i1 noundef zeroext false)
  ret ptr %1
}

; Function Attrs: alwaysinline nounwind uwtable
define internal void @tsd_boot1() #1 {
  ret void
}

; Function Attrs: nounwind uwtable
define void @duckdb_je_malloc_tsd_boot1() #0 {
  %1 = alloca ptr, align 8
  call void @tsd_boot1()
  call void @llvm.lifetime.start.p0(i64 8, ptr %1) #10
  %2 = call ptr @tsd_fetch()
  store ptr %2, ptr %1, align 8, !tbaa !14
  %3 = load ptr, ptr %1, align 8, !tbaa !14
  call void @duckdb_je_tsd_slow_update(ptr noundef %3)
  call void @llvm.lifetime.end.p0(i64 8, ptr %1) #10
  ret void
}