; Function Attrs: nounwind uwtable
define void @duckdb_je_malloc_tsd_boot1() local_unnamed_addr #0 {
  %1 = tail call nonnull align 8 ptr @llvm.threadlocal.address.p0(ptr align 8 @duckdb_je_tsd_tls)
  %2 = getelementptr i8, ptr %1, i64 824
  %3 = load i8, ptr %2, align 8, !tbaa !43
  %.not.i = icmp eq i8 %3, 0
  br i1 %.not.i, label %tsd_fetch_impl.exit, label %4, !prof !60

4:                                                ; preds = %0
  %5 = tail call ptr @duckdb_je_tsd_fetch_slow(ptr noundef nonnull %1, i1 noundef zeroext false)
  br label %tsd_fetch_impl.exit

tsd_fetch_impl.exit:                              ; preds = %0, %4
  %6 = getelementptr inbounds nuw i8, ptr %1, i64 1
  br label %7

7:                                                ; preds = %atomic_exchange_u8.exit.i, %tsd_fetch_impl.exit
  %.val.i.i = load i8, ptr %2, align 8, !tbaa !43
  %8 = icmp ult i8 %.val.i.i, 3
  br i1 %8, label %9, label %atomic_exchange_u8.exit.i

9:                                                ; preds = %7
  %10 = load i8, ptr @duckdb_je_malloc_slow, align 1, !tbaa !44, !range !45, !noundef !46
  %11 = trunc nuw i8 %10 to i1
  br i1 %11, label %atomic_exchange_u8.exit.i, label %12

12:                                               ; preds = %9
  %13 = load i8, ptr %1, align 8, !tbaa !44, !range !45, !noundef !46
  %14 = trunc nuw i8 %13 to i1
  %15 = load i8, ptr %6, align 1
  %16 = icmp slt i8 %15, 1
  %or.cond.not = select i1 %14, i1 %16, i1 false
  br i1 %or.cond.not, label %17, label %atomic_exchange_u8.exit.i

17:                                               ; preds = %12
  %18 = load atomic i32, ptr @tsd_global_slow_count monotonic, align 4
  %.not.i.i = icmp ne i32 %18, 0
  %spec.select.i.i = zext i1 %.not.i.i to i8
  br label %atomic_exchange_u8.exit.i

atomic_exchange_u8.exit.i:                        ; preds = %17, %12, %9, %7
  %.0.i5.i = phi i8 [ 1, %9 ], [ %spec.select.i.i, %17 ], [ %.val.i.i, %7 ], [ 1, %12 ]
  %19 = atomicrmw xchg ptr %2, i8 %.0.i5.i acquire, align 1
  %20 = icmp eq i8 %19, 2
  br i1 %20, label %7, label %duckdb_je_tsd_slow_update.exit

duckdb_je_tsd_slow_update.exit:                   ; preds = %atomic_exchange_u8.exit.i
  tail call void @duckdb_je_te_recompute_fast_threshold(ptr noundef nonnull %1) #7
  ret void
}